target datalayout = "e-m:e-p270:32:32-p271:32:32-p272:64:64-i64:64-i128:128-f80:128-n8:16:32:64-S128"
target triple = "x86_64-pc-linux-gnu"

%struct.lean_object = type { i32, i32 }

; Function Attrs: inlinehint nounwind uwtable
define internal zeroext i8 @lean_ptr_tag(ptr noundef %0) #0 {
  %2 = alloca ptr, align 8
  store ptr %0, ptr %2, align 8, !tbaa !8
  %3 = load ptr, ptr %2, align 8, !tbaa !8
  %4 = getelementptr inbounds nuw %struct.lean_object, ptr %3, i32 0, i32 1
  %5 = load i32, ptr %4, align 4
  %6 = lshr i32 %5, 24
  %7 = trunc i32 %6 to i8
  ret i8 %7
}

; Function Attrs: inlinehint nounwind uwtable
define internal i64 @lean_unbox(ptr noundef %0) #0 {
  %2 = alloca ptr, align 8
  store ptr %0, ptr %2, align 8, !tbaa !8
  %3 = load ptr, ptr %2, align 8, !tbaa !8
  %4 = ptrtoint ptr %3 to i64
  %5 = lshr i64 %4, 1
  ret i64 %5
}

; Function Attrs: alwaysinline nounwind uwtable
define internal void @lean_dec_ref(ptr noundef %0) #1 {
  %2 = alloca ptr, align 8
  store ptr %0, ptr %2, align 8, !tbaa !8
  %3 = load ptr, ptr %2, align 8, !tbaa !8
  %4 = getelementptr inbounds nuw %struct.lean_object, ptr %3, i32 0, i32 0
  %5 = load i32, ptr %4, align 4, !tbaa !19
  %6 = icmp sgt i32 %5, 1
  %7 = zext i1 %6 to i32
  %8 = sext i32 %7 to i64
  %9 = call i64 @llvm.expect.i64(i64 %8, i64 1)
  %10 = icmp ne i64 %9, 0
  br i1 %10, label %11, label %16

11:                                               ; preds = %1
  %12 = load ptr, ptr %2, align 8, !tbaa !8
  %13 = getelementptr inbounds nuw %struct.lean_object, ptr %12, i32 0, i32 0
  %14 = load i32, ptr %13, align 4, !tbaa !19
  %15 = add i32 %14, -1
  store i32 %15, ptr %13, align 4, !tbaa !19
  br label %24

16:                                               ; preds = %1
  %17 = load ptr, ptr %2, align 8, !tbaa !8
  %18 = getelementptr inbounds nuw %struct.lean_object, ptr %17, i32 0, i32 0
  %19 = load i32, ptr %18, align 4, !tbaa !19
  %20 = icmp ne i32 %19, 0
  br i1 %20, label %21, label %23

21:                                               ; preds = %16
  %22 = load ptr, ptr %2, align 8, !tbaa !8
  call void @lean_dec_ref_cold(ptr noundef %22)
  br label %23

23:                                               ; preds = %21, %16
  br label %24

24:                                               ; preds = %23, %11
  ret void
}

; Function Attrs: alwaysinline nounwind uwtable
define internal zeroext i1 @lean_is_scalar(ptr noundef %0) #1 {
  %2 = alloca ptr, align 8
  store ptr %0, ptr %2, align 8, !tbaa !8
  %3 = load ptr, ptr %2, align 8, !tbaa !8
  %4 = ptrtoint ptr %3 to i64
  %5 = and i64 %4, 1
  %6 = icmp eq i64 %5, 1
  ret i1 %6
}

; Function Attrs: inlinehint nounwind uwtable
define internal ptr @lean_box(i64 noundef %0) #0 {
  %2 = alloca i64, align 8
  store i64 %0, ptr %2, align 8, !tbaa !4
  %3 = load i64, ptr %2, align 8, !tbaa !4
  %4 = shl i64 %3, 1
  %5 = or i64 %4, 1
  %6 = inttoptr i64 %5 to ptr
  ret ptr %6
}

; Function Attrs: inlinehint nounwind uwtable
define internal i32 @lean_obj_tag(ptr noundef %0) #0 {
  %2 = alloca i32, align 4
  %3 = alloca ptr, align 8
  store ptr %0, ptr %3, align 8, !tbaa !8
  %4 = load ptr, ptr %3, align 8, !tbaa !8
  %5 = call zeroext i1 @lean_is_scalar(ptr noundef %4)
  br i1 %5, label %6, label %10

6:                                                ; preds = %1
  %7 = load ptr, ptr %3, align 8, !tbaa !8
  %8 = call i64 @lean_unbox(ptr noundef %7)
  %9 = trunc i64 %8 to i32
  store i32 %9, ptr %2, align 4
  br label %14

10:                                               ; preds = %1
  %11 = load ptr, ptr %3, align 8, !tbaa !8
  %12 = call zeroext i8 @lean_ptr_tag(ptr noundef %11)
  %13 = zext i8 %12 to i32
  store i32 %13, ptr %2, align 4
  br label %14

14:                                               ; preds = %10, %6
  %15 = load i32, ptr %2, align 4
  ret i32 %15
}

; Function Attrs: alwaysinline nounwind uwtable
define internal void @lean_dec(ptr noundef %0) #1 {
  %2 = alloca ptr, align 8
  store ptr %0, ptr %2, align 8, !tbaa !8
  %3 = load ptr, ptr %2, align 8, !tbaa !8
  %4 = call zeroext i1 @lean_is_scalar(ptr noundef %3)
  br i1 %4, label %7, label %5

5:                                                ; preds = %1
  %6 = load ptr, ptr %2, align 8, !tbaa !8
  call void @lean_dec_ref(ptr noundef %6)
  br label %7

7:                                                ; preds = %5, %1
  ret void
}

; Function Attrs: nounwind uwtable
define ptr @l___private_Lean_Compiler_IR_FreeVars_0__Lean_IR_FreeIndices_collectJP(ptr noundef %0, ptr noundef %1, ptr noundef %2) #2 {
  %4 = alloca ptr, align 8
  %5 = alloca ptr, align 8
  %6 = alloca ptr, align 8
  %7 = alloca ptr, align 8
  %8 = alloca ptr, align 8
  %9 = alloca ptr, align 8
  %10 = alloca ptr, align 8
  %11 = alloca i32, align 4
  store ptr %0, ptr %5, align 8, !tbaa !8
  store ptr %1, ptr %6, align 8, !tbaa !8
  store ptr %2, ptr %7, align 8, !tbaa !8
  br label %12

12:                                               ; preds = %3
  call void @llvm.lifetime.start.p0(i64 8, ptr %8) #7
  %13 = load ptr, ptr %6, align 8, !tbaa !8
  %14 = load ptr, ptr %5, align 8, !tbaa !8
  %15 = call ptr @l_Lean_RBNode_findCore___at___private_Lean_Compiler_IR_FreeVars_0__Lean_IR_FreeIndices_collectIndex___spec__1(ptr noundef %13, ptr noundef %14)
  store ptr %15, ptr %8, align 8, !tbaa !8
  %16 = load ptr, ptr %8, align 8, !tbaa !8
  %17 = call i32 @lean_obj_tag(ptr noundef %16)
  %18 = icmp eq i32 %17, 0
  br i1 %18, label %19, label %26

19:                                               ; preds = %12
  call void @llvm.lifetime.start.p0(i64 8, ptr %9) #7
  call void @llvm.lifetime.start.p0(i64 8, ptr %10) #7
  %20 = call ptr @lean_box(i64 noundef 0)
  store ptr %20, ptr %9, align 8, !tbaa !8
  %21 = load ptr, ptr %7, align 8, !tbaa !8
  %22 = load ptr, ptr %5, align 8, !tbaa !8
  %23 = load ptr, ptr %9, align 8, !tbaa !8
  %24 = call ptr @l_Lean_RBNode_insert___at_Lean_IR_mkIndexSet___spec__1(ptr noundef %21, ptr noundef %22, ptr noundef %23)
  store ptr %24, ptr %10, align 8, !tbaa !8
  %25 = load ptr, ptr %10, align 8, !tbaa !8
  store ptr %25, ptr %4, align 8
  store i32 1, ptr %11, align 4
  call void @llvm.lifetime.end.p0(i64 8, ptr %10) #7
  call void @llvm.lifetime.end.p0(i64 8, ptr %9) #7
  br label %30

26:                                               ; preds = %12
  %27 = load ptr, ptr %8, align 8, !tbaa !8
  call void @lean_dec(ptr noundef %27)
  %28 = load ptr, ptr %5, align 8, !tbaa !8
  call void @lean_dec(ptr noundef %28)
  %29 = load ptr, ptr %7, align 8, !tbaa !8
  store ptr %29, ptr %4, align 8
  store i32 1, ptr %11, align 4
  br label %30

30:                                               ; preds = %26, %19
  call void @llvm.lifetime.end.p0(i64 8, ptr %8) #7
  %31 = load ptr, ptr %4, align 8
  ret ptr %31
}

; Function Attrs: nounwind uwtable
define ptr @l___private_Lean_Compiler_IR_FreeVars_0__Lean_IR_FreeIndices_collectJP___boxed(ptr noundef %0, ptr noundef %1, ptr noundef %2) #2 {
  %4 = alloca ptr, align 8
  %5 = alloca ptr, align 8
  %6 = alloca ptr, align 8
  %7 = alloca ptr, align 8
  store ptr %0, ptr %4, align 8, !tbaa !8
  store ptr %1, ptr %5, align 8, !tbaa !8
  store ptr %2, ptr %6, align 8, !tbaa !8
  br label %8

8:                                                ; preds = %3
  call void @llvm.lifetime.start.p0(i64 8, ptr %7) #7
  %9 = load ptr, ptr %4, align 8, !tbaa !8
  %10 = load ptr, ptr %5, align 8, !tbaa !8
  %11 = load ptr, ptr %6, align 8, !tbaa !8
  %12 = call ptr @l___private_Lean_Compiler_IR_FreeVars_0__Lean_IR_FreeIndices_collectJP(ptr noundef %9, ptr noundef %10, ptr noundef %11)
  store ptr %12, ptr %7, align 8, !tbaa !8
  %13 = load ptr, ptr %5, align 8, !tbaa !8
  call void @lean_dec(ptr noundef %13)
  %14 = load ptr, ptr %7, align 8, !tbaa !8
  call void @llvm.lifetime.end.p0(i64 8, ptr %7) #7
  ret ptr %14
}