; Function Attrs: nounwind uwtable
define ptr @l___private_Lean_Compiler_IR_FreeVars_0__Lean_IR_FreeIndices_collectJP___boxed(ptr noundef %0, ptr noundef %1, ptr noundef %2) local_unnamed_addr #0 {
  %4 = tail call ptr @l_Lean_RBNode_findCore___at___private_Lean_Compiler_IR_FreeVars_0__Lean_IR_FreeIndices_collectIndex___spec__1(ptr noundef %1, ptr noundef %0)
  %5 = ptrtoint ptr %4 to i64
  %6 = and i64 %5, 1
  %.not.i14.i = icmp eq i64 %6, 0
  br i1 %.not.i14.i, label %lean_obj_tag.exit.thread.i, label %lean_obj_tag.exit.i

lean_obj_tag.exit.i:                              ; preds = %3
  %7 = and i64 %5, 8589934590
  %8 = icmp eq i64 %7, 0
  br i1 %8, label %11, label %lean_dec.exit11.i

lean_obj_tag.exit.thread.i:                       ; preds = %3
  %9 = getelementptr i8, ptr %4, i64 4
  %.val.i.i = load i32, ptr %9, align 4
  %10 = icmp ult i32 %.val.i.i, 16777216
  br i1 %10, label %11, label %.thread.i

11:                                               ; preds = %lean_obj_tag.exit.thread.i, %lean_obj_tag.exit.i
  %12 = tail call ptr @l_Lean_RBNode_insert___at_Lean_IR_mkIndexSet___spec__1(ptr noundef %2, ptr noundef %0, ptr noundef nonnull inttoptr (i64 1 to ptr)) #3
  br label %l___private_Lean_Compiler_IR_FreeVars_0__Lean_IR_FreeIndices_collectJP.exit

.thread.i:                                        ; preds = %lean_obj_tag.exit.thread.i
  %13 = load i32, ptr %4, align 4, !tbaa !4
  %14 = icmp sgt i32 %13, 1
  br i1 %14, label %15, label %17, !prof !9

15:                                               ; preds = %.thread.i
  %16 = add nsw i32 %13, -1
  store i32 %16, ptr %4, align 4, !tbaa !4
  br label %lean_dec.exit11.i

17:                                               ; preds = %.thread.i
  %.not.i.i = icmp eq i32 %13, 0
  br i1 %.not.i.i, label %lean_dec.exit11.i, label %18

18:                                               ; preds = %17
  tail call void @lean_dec_ref_cold(ptr noundef nonnull %4) #3
  br label %lean_dec.exit11.i

lean_dec.exit11.i:                                ; preds = %18, %17, %15, %lean_obj_tag.exit.i
  %19 = ptrtoint ptr %0 to i64
  %20 = and i64 %19, 1
  %.not.i5 = icmp eq i64 %20, 0
  br i1 %.not.i5, label %21, label %l___private_Lean_Compiler_IR_FreeVars_0__Lean_IR_FreeIndices_collectJP.exit

21:                                               ; preds = %lean_dec.exit11.i
  %22 = load i32, ptr %0, align 4, !tbaa !4
  %23 = icmp sgt i32 %22, 1
  br i1 %23, label %24, label %26, !prof !9

24:                                               ; preds = %21
  %25 = add nsw i32 %22, -1
  store i32 %25, ptr %0, align 4, !tbaa !4
  br label %l___private_Lean_Compiler_IR_FreeVars_0__Lean_IR_FreeIndices_collectJP.exit

26:                                               ; preds = %21
  %.not.i12.i = icmp eq i32 %22, 0
  br i1 %.not.i12.i, label %l___private_Lean_Compiler_IR_FreeVars_0__Lean_IR_FreeIndices_collectJP.exit, label %27

27:                                               ; preds = %26
  tail call void @lean_dec_ref_cold(ptr noundef nonnull %0) #3
  br label %l___private_Lean_Compiler_IR_FreeVars_0__Lean_IR_FreeIndices_collectJP.exit

l___private_Lean_Compiler_IR_FreeVars_0__Lean_IR_FreeIndices_collectJP.exit: ; preds = %11, %lean_dec.exit11.i, %24, %26, %27
  %.0.i = phi ptr [ %12, %11 ], [ %2, %27 ], [ %2, %26 ], [ %2, %24 ], [ %2, %lean_dec.exit11.i ]
  %28 = ptrtoint ptr %1 to i64
  %29 = and i64 %28, 1
  %.not = icmp eq i64 %29, 0
  br i1 %.not, label %30, label %lean_dec.exit

30:                                               ; preds = %l___private_Lean_Compiler_IR_FreeVars_0__Lean_IR_FreeIndices_collectJP.exit
  %31 = load i32, ptr %1, align 4, !tbaa !4
  %32 = icmp sgt i32 %31, 1
  br i1 %32, label %33, label %35, !prof !9

33:                                               ; preds = %30
  %34 = add nsw i32 %31, -1
  store i32 %34, ptr %1, align 4, !tbaa !4
  br label %lean_dec.exit

35:                                               ; preds = %30
  %.not.i = icmp eq i32 %31, 0
  br i1 %.not.i, label %lean_dec.exit, label %36

36:                                               ; preds = %35
  tail call void @lean_dec_ref_cold(ptr noundef nonnull %1) #3
  br label %lean_dec.exit

lean_dec.exit:                                    ; preds = %36, %35, %33, %l___private_Lean_Compiler_IR_FreeVars_0__Lean_IR_FreeIndices_collectJP.exit
  ret ptr %.0.i
}